; Function Attrs: mustprogress nofree norecurse nosync nounwind willreturn memory(read, inaccessiblemem: none) uwtable
define dso_local noundef zeroext i1 @_ZN4node9inspector5Agent8IsActiveEv(ptr nocapture noundef nonnull readonly align 8 dereferenceable(186) %this) local_unnamed_addr #8 align 2 {
entry:
  %client_ = getelementptr inbounds i8, ptr %this, i64 8
  %0 = load ptr, ptr %client_, align 8
  %cmp.i.not.i = icmp eq ptr %0, null
  br i1 %cmp.i.not.i, label %return, label %if.end

if.end:                                           ; preds = %entry
  %io_ = getelementptr inbounds i8, ptr %this, i64 24
  %1 = load ptr, ptr %io_, align 8
  %cmp.i.i.not = icmp eq ptr %1, null
  br i1 %cmp.i.i.not, label %lor.rhs, label %return

lor.rhs:                                          ; preds = %if.end
  %2 = getelementptr inbounds i8, ptr %0, i64 112
  %channels_.val.i = load i64, ptr %2, align 8
  %cmp.i.i.i = icmp ne i64 %channels_.val.i, 0
  br label %return

return:                                           ; preds = %if.end, %lor.rhs, %entry
  %retval.0 = phi i1 [ false, %entry ], [ true, %if.end ], [ %cmp.i.i.i, %lor.rhs ]
  ret i1 %retval.0
}